target datalayout = "e-m:e-p270:32:32-p271:32:32-p272:64:64-i64:64-i128:128-f80:128-n8:16:32:64-S128"
target triple = "x86_64-pc-linux-gnu"

%union.__SOCKADDR_ARG = type { ptr }
%struct.accept_arg = type { i32, ptr, ptr }

; Function Attrs: nounwind sspstrong uwtable
define internal i32 @cloexec_accept(i32 noundef %0, ptr noundef %1, ptr noundef %2) #0 {
  %4 = alloca i32, align 4
  %5 = alloca i32, align 4
  %6 = alloca ptr, align 8
  %7 = alloca ptr, align 8
  %8 = alloca i32, align 4
  %9 = alloca i32, align 4
  %10 = alloca i32, align 4
  %11 = alloca %union.__SOCKADDR_ARG, align 8
  %12 = alloca i32, align 4
  store i32 %0, ptr %5, align 4, !tbaa !11
  store ptr %1, ptr %6, align 8, !tbaa !67
  store ptr %2, ptr %7, align 8, !tbaa !74
  call void @llvm.lifetime.start.p0(i64 4, ptr %8) #21
  store i32 0, ptr %8, align 4, !tbaa !11
  %13 = load ptr, ptr %7, align 8, !tbaa !74
  %14 = icmp ne ptr %13, null
  br i1 %14, label %15, label %18

15:                                               ; preds = %3
  %16 = load ptr, ptr %7, align 8, !tbaa !74
  %17 = load i32, ptr %16, align 4, !tbaa !11
  store i32 %17, ptr %8, align 4, !tbaa !11
  br label %18

18:                                               ; preds = %15, %3
  call void @llvm.lifetime.start.p0(i64 4, ptr %9) #21
  store i32 524288, ptr %9, align 4, !tbaa !11
  %19 = load i32, ptr %9, align 4, !tbaa !11
  %20 = or i32 %19, 2048
  store i32 %20, ptr %9, align 4, !tbaa !11
  call void @llvm.lifetime.start.p0(i64 4, ptr %10) #21
  %21 = load i32, ptr %5, align 4, !tbaa !11
  %22 = load ptr, ptr %6, align 8, !tbaa !67
  store ptr %22, ptr %11, align 8, !tbaa !34
  %23 = load ptr, ptr %7, align 8, !tbaa !74
  %24 = load i32, ptr %9, align 4, !tbaa !11
  %25 = getelementptr inbounds nuw %union.__SOCKADDR_ARG, ptr %11, i32 0, i32 0
  %26 = load ptr, ptr %25, align 8
  %27 = call i32 @accept4(i32 noundef %21, ptr %26, ptr noundef %23, i32 noundef %24)
  store i32 %27, ptr %10, align 4, !tbaa !11
  %28 = load i32, ptr %10, align 4, !tbaa !11
  %29 = icmp eq i32 %28, -1
  br i1 %29, label %30, label %31

30:                                               ; preds = %18
  store i32 -1, ptr %4, align 4
  store i32 1, ptr %12, align 4
  br label %44

31:                                               ; preds = %18
  %32 = load ptr, ptr %7, align 8, !tbaa !74
  %33 = icmp ne ptr %32, null
  br i1 %33, label %34, label %42

34:                                               ; preds = %31
  %35 = load i32, ptr %8, align 4, !tbaa !11
  %36 = load ptr, ptr %7, align 8, !tbaa !74
  %37 = load i32, ptr %36, align 4, !tbaa !11
  %38 = icmp ult i32 %35, %37
  br i1 %38, label %39, label %42

39:                                               ; preds = %34
  %40 = load i32, ptr %8, align 4, !tbaa !11
  %41 = load ptr, ptr %7, align 8, !tbaa !74
  store i32 %40, ptr %41, align 4, !tbaa !11
  br label %42

42:                                               ; preds = %39, %34, %31
  %43 = load i32, ptr %10, align 4, !tbaa !11
  store i32 %43, ptr %4, align 4
  store i32 1, ptr %12, align 4
  br label %44

44:                                               ; preds = %42, %30
  call void @llvm.lifetime.end.p0(i64 4, ptr %10) #21
  call void @llvm.lifetime.end.p0(i64 4, ptr %9) #21
  call void @llvm.lifetime.end.p0(i64 4, ptr %8) #21
  %45 = load i32, ptr %4, align 4
  ret i32 %45
}

; Function Attrs: nounwind sspstrong uwtable
define internal i64 @accept_blocking(ptr noundef %0) #0 {
  %2 = alloca ptr, align 8
  %3 = alloca ptr, align 8
  store ptr %0, ptr %2, align 8, !tbaa !25
  call void @llvm.lifetime.start.p0(i64 8, ptr %3) #21
  %4 = load ptr, ptr %2, align 8, !tbaa !25
  store ptr %4, ptr %3, align 8, !tbaa !80
  %5 = load ptr, ptr %3, align 8, !tbaa !80
  %6 = getelementptr inbounds nuw %struct.accept_arg, ptr %5, i32 0, i32 0
  %7 = load i32, ptr %6, align 8, !tbaa !76
  %8 = load ptr, ptr %3, align 8, !tbaa !80
  %9 = getelementptr inbounds nuw %struct.accept_arg, ptr %8, i32 0, i32 1
  %10 = load ptr, ptr %9, align 8, !tbaa !78
  %11 = load ptr, ptr %3, align 8, !tbaa !80
  %12 = getelementptr inbounds nuw %struct.accept_arg, ptr %11, i32 0, i32 2
  %13 = load ptr, ptr %12, align 8, !tbaa !79
  %14 = call i32 @cloexec_accept(i32 noundef %7, ptr noundef %10, ptr noundef %13)
  %15 = sext i32 %14 to i64
  call void @llvm.lifetime.end.p0(i64 8, ptr %3) #21
  ret i64 %15
}