; Function Attrs: nounwind sspstrong uwtable
define internal range(i64 -2147483648, 2147483648) i64 @accept_blocking(ptr noundef readonly captures(none) %0) #0 {
  %2 = load i32, ptr %0, align 8, !tbaa !72
  %3 = getelementptr inbounds nuw i8, ptr %0, i64 8
  %4 = load ptr, ptr %3, align 8, !tbaa !75
  %5 = getelementptr inbounds nuw i8, ptr %0, i64 16
  %6 = load ptr, ptr %5, align 8, !tbaa !76
  %.not.i = icmp eq ptr %6, null
  br i1 %.not.i, label %.thread.i, label %8

.thread.i:                                        ; preds = %1
  %7 = tail call i32 @accept4(i32 noundef %2, ptr %4, ptr noundef null, i32 noundef 526336) #10
  br label %cloexec_accept.exit

8:                                                ; preds = %1
  %9 = load i32, ptr %6, align 4, !tbaa !6
  %10 = tail call i32 @accept4(i32 noundef %2, ptr %4, ptr noundef nonnull %6, i32 noundef 526336) #10
  %11 = icmp eq i32 %10, -1
  br i1 %11, label %cloexec_accept.exit, label %12

12:                                               ; preds = %8
  %13 = load i32, ptr %6, align 4, !tbaa !6
  %14 = icmp ult i32 %9, %13
  br i1 %14, label %15, label %cloexec_accept.exit

15:                                               ; preds = %12
  store i32 %9, ptr %6, align 4, !tbaa !6
  br label %cloexec_accept.exit

cloexec_accept.exit:                              ; preds = %.thread.i, %8, %12, %15
  %16 = phi i32 [ %7, %.thread.i ], [ -1, %8 ], [ %10, %12 ], [ %10, %15 ]
  %17 = sext i32 %16 to i64
  ret i64 %17
}